target datalayout = "e-m:e-p270:32:32-p271:32:32-p272:64:64-i64:64-i128:128-f80:128-n8:16:32:64-S128"
target triple = "x86_64-pc-linux-gnu"

%struct.printTableFooter = type { ptr, ptr }
%struct.printTableOpt = type { i32, i16, i32, i32, i16, i16, i32, i8, i8, i8, i8, i64, ptr, %struct.separator, %struct.separator, [2 x i8], i8, ptr, i32, i32, i32, i32, i32, i32 }
%struct.separator = type { ptr, i8 }
%struct.printTableContent = type { ptr, ptr, i32, i32, ptr, ptr, ptr, ptr, i64, ptr, ptr, ptr, ptr, ptr }

@cancel_pressed = dso_local global i32 0, align 4

; Function Attrs: nounwind uwtable
define internal void @print_separator(ptr %0, i8 %1, ptr noundef %2) #0 {
  %4 = alloca %struct.separator, align 8
  %5 = alloca ptr, align 8
  %6 = getelementptr inbounds nuw { ptr, i8 }, ptr %4, i32 0, i32 0
  store ptr %0, ptr %6, align 8
  %7 = getelementptr inbounds nuw { ptr, i8 }, ptr %4, i32 0, i32 1
  store i8 %1, ptr %7, align 8
  store ptr %2, ptr %5, align 8
  %8 = getelementptr inbounds nuw %struct.separator, ptr %4, i32 0, i32 1
  %9 = load i8, ptr %8, align 8, !range !4, !noundef !5
  %10 = trunc i8 %9 to i1
  br i1 %10, label %11, label %14

11:                                               ; preds = %3
  %12 = load ptr, ptr %5, align 8
  %13 = call i32 @fputc(i32 noundef 0, ptr noundef %12)
  br label %24

14:                                               ; preds = %3
  %15 = getelementptr inbounds nuw %struct.separator, ptr %4, i32 0, i32 0
  %16 = load ptr, ptr %15, align 8
  %17 = icmp ne ptr %16, null
  br i1 %17, label %18, label %23

18:                                               ; preds = %14
  %19 = getelementptr inbounds nuw %struct.separator, ptr %4, i32 0, i32 0
  %20 = load ptr, ptr %19, align 8
  %21 = load ptr, ptr %5, align 8
  %22 = call i32 @fputs(ptr noundef %20, ptr noundef %21)
  br label %23

23:                                               ; preds = %18, %14
  br label %24

24:                                               ; preds = %23, %11
  ret void
}

; Function Attrs: nounwind uwtable
define internal void @print_unaligned_vertical(ptr noundef %0, ptr noundef %1) #0 {
  %3 = alloca ptr, align 8
  %4 = alloca ptr, align 8
  %5 = alloca i8, align 1
  %6 = alloca i32, align 4
  %7 = alloca ptr, align 8
  %8 = alloca i8, align 1
  %9 = alloca i32, align 4
  %10 = alloca ptr, align 8
  store ptr %0, ptr %3, align 8
  store ptr %1, ptr %4, align 8
  call void @llvm.lifetime.start.p0(i64 1, ptr %5) #8
  %11 = load ptr, ptr %3, align 8
  %12 = getelementptr inbounds nuw %struct.printTableContent, ptr %11, i32 0, i32 0
  %13 = load ptr, ptr %12, align 8
  %14 = getelementptr inbounds nuw %struct.printTableOpt, ptr %13, i32 0, i32 7
  %15 = load i8, ptr %14, align 8, !range !4, !noundef !5
  %16 = trunc i8 %15 to i1
  %17 = zext i1 %16 to i8
  store i8 %17, ptr %5, align 1
  call void @llvm.lifetime.start.p0(i64 4, ptr %6) #8
  call void @llvm.lifetime.start.p0(i64 8, ptr %7) #8
  call void @llvm.lifetime.start.p0(i64 1, ptr %8) #8
  store i8 0, ptr %8, align 1
  %18 = load volatile i32, ptr @cancel_pressed, align 4
  %19 = icmp ne i32 %18, 0
  br i1 %19, label %20, label %21

20:                                               ; preds = %2
  store i32 1, ptr %9, align 4
  br label %210

21:                                               ; preds = %2
  %22 = load ptr, ptr %3, align 8
  %23 = getelementptr inbounds nuw %struct.printTableContent, ptr %22, i32 0, i32 0
  %24 = load ptr, ptr %23, align 8
  %25 = getelementptr inbounds nuw %struct.printTableOpt, ptr %24, i32 0, i32 8
  %26 = load i8, ptr %25, align 1, !range !4, !noundef !5
  %27 = trunc i8 %26 to i1
  br i1 %27, label %28, label %43

28:                                               ; preds = %21
  %29 = load i8, ptr %5, align 1, !range !4, !noundef !5
  %30 = trunc i8 %29 to i1
  br i1 %30, label %42, label %31

31:                                               ; preds = %28
  %32 = load ptr, ptr %3, align 8
  %33 = getelementptr inbounds nuw %struct.printTableContent, ptr %32, i32 0, i32 1
  %34 = load ptr, ptr %33, align 8
  %35 = icmp ne ptr %34, null
  br i1 %35, label %36, label %42

36:                                               ; preds = %31
  %37 = load ptr, ptr %3, align 8
  %38 = getelementptr inbounds nuw %struct.printTableContent, ptr %37, i32 0, i32 1
  %39 = load ptr, ptr %38, align 8
  %40 = load ptr, ptr %4, align 8
  %41 = call i32 @fputs(ptr noundef %39, ptr noundef %40)
  store i8 1, ptr %8, align 1
  br label %42

42:                                               ; preds = %36, %31, %28
  br label %44

43:                                               ; preds = %21
  store i8 1, ptr %8, align 1
  br label %44

44:                                               ; preds = %43, %42
  store i32 0, ptr %6, align 4
  %45 = load ptr, ptr %3, align 8
  %46 = getelementptr inbounds nuw %struct.printTableContent, ptr %45, i32 0, i32 6
  %47 = load ptr, ptr %46, align 8
  store ptr %47, ptr %7, align 8
  br label %48

48:                                               ; preds = %124, %44
  %49 = load ptr, ptr %7, align 8
  %50 = load ptr, ptr %49, align 8
  %51 = icmp ne ptr %50, null
  br i1 %51, label %52, label %129

52:                                               ; preds = %48
  %53 = load i8, ptr %8, align 1, !range !4, !noundef !5
  %54 = trunc i8 %53 to i1
  br i1 %54, label %55, label %78

55:                                               ; preds = %52
  %56 = load ptr, ptr %3, align 8
  %57 = getelementptr inbounds nuw %struct.printTableContent, ptr %56, i32 0, i32 0
  %58 = load ptr, ptr %57, align 8
  %59 = getelementptr inbounds nuw %struct.printTableOpt, ptr %58, i32 0, i32 14
  %60 = load ptr, ptr %4, align 8
  %61 = getelementptr inbounds nuw { ptr, i8 }, ptr %59, i32 0, i32 0
  %62 = load ptr, ptr %61, align 8
  %63 = getelementptr inbounds nuw { ptr, i8 }, ptr %59, i32 0, i32 1
  %64 = load i8, ptr %63, align 8
  call void @print_separator(ptr %62, i8 %64, ptr noundef %60)
  %65 = load ptr, ptr %3, align 8
  %66 = getelementptr inbounds nuw %struct.printTableContent, ptr %65, i32 0, i32 0
  %67 = load ptr, ptr %66, align 8
  %68 = getelementptr inbounds nuw %struct.printTableOpt, ptr %67, i32 0, i32 14
  %69 = load ptr, ptr %4, align 8
  %70 = getelementptr inbounds nuw { ptr, i8 }, ptr %68, i32 0, i32 0
  %71 = load ptr, ptr %70, align 8
  %72 = getelementptr inbounds nuw { ptr, i8 }, ptr %68, i32 0, i32 1
  %73 = load i8, ptr %72, align 8
  call void @print_separator(ptr %71, i8 %73, ptr noundef %69)
  store i8 0, ptr %8, align 1
  %74 = load volatile i32, ptr @cancel_pressed, align 4
  %75 = icmp ne i32 %74, 0
  br i1 %75, label %76, label %77

76:                                               ; preds = %55
  br label %129

77:                                               ; preds = %55
  br label %78

78:                                               ; preds = %77, %52
  %79 = load ptr, ptr %3, align 8
  %80 = getelementptr inbounds nuw %struct.printTableContent, ptr %79, i32 0, i32 4
  %81 = load ptr, ptr %80, align 8
  %82 = load i32, ptr %6, align 4
  %83 = load ptr, ptr %3, align 8
  %84 = getelementptr inbounds nuw %struct.printTableContent, ptr %83, i32 0, i32 2
  %85 = load i32, ptr %84, align 8
  %86 = urem i32 %82, %85
  %87 = zext i32 %86 to i64
  %88 = getelementptr inbounds nuw ptr, ptr %81, i64 %87
  %89 = load ptr, ptr %88, align 8
  %90 = load ptr, ptr %4, align 8
  %91 = call i32 @fputs(ptr noundef %89, ptr noundef %90)
  %92 = load ptr, ptr %3, align 8
  %93 = getelementptr inbounds nuw %struct.printTableContent, ptr %92, i32 0, i32 0
  %94 = load ptr, ptr %93, align 8
  %95 = getelementptr inbounds nuw %struct.printTableOpt, ptr %94, i32 0, i32 13
  %96 = load ptr, ptr %4, align 8
  %97 = getelementptr inbounds nuw { ptr, i8 }, ptr %95, i32 0, i32 0
  %98 = load ptr, ptr %97, align 8
  %99 = getelementptr inbounds nuw { ptr, i8 }, ptr %95, i32 0, i32 1
  %100 = load i8, ptr %99, align 8
  call void @print_separator(ptr %98, i8 %100, ptr noundef %96)
  %101 = load ptr, ptr %7, align 8
  %102 = load ptr, ptr %101, align 8
  %103 = load ptr, ptr %4, align 8
  %104 = call i32 @fputs(ptr noundef %102, ptr noundef %103)
  %105 = load i32, ptr %6, align 4
  %106 = add i32 %105, 1
  %107 = load ptr, ptr %3, align 8
  %108 = getelementptr inbounds nuw %struct.printTableContent, ptr %107, i32 0, i32 2
  %109 = load i32, ptr %108, align 8
  %110 = urem i32 %106, %109
  %111 = icmp ne i32 %110, 0
  br i1 %111, label %112, label %122

112:                                              ; preds = %78
  %113 = load ptr, ptr %3, align 8
  %114 = getelementptr inbounds nuw %struct.printTableContent, ptr %113, i32 0, i32 0
  %115 = load ptr, ptr %114, align 8
  %116 = getelementptr inbounds nuw %struct.printTableOpt, ptr %115, i32 0, i32 14
  %117 = load ptr, ptr %4, align 8
  %118 = getelementptr inbounds nuw { ptr, i8 }, ptr %116, i32 0, i32 0
  %119 = load ptr, ptr %118, align 8
  %120 = getelementptr inbounds nuw { ptr, i8 }, ptr %116, i32 0, i32 1
  %121 = load i8, ptr %120, align 8
  call void @print_separator(ptr %119, i8 %121, ptr noundef %117)
  br label %123

122:                                              ; preds = %78
  store i8 1, ptr %8, align 1
  br label %123

123:                                              ; preds = %122, %112
  br label %124

124:                                              ; preds = %123
  %125 = load i32, ptr %6, align 4
  %126 = add i32 %125, 1
  store i32 %126, ptr %6, align 4
  %127 = load ptr, ptr %7, align 8
  %128 = getelementptr inbounds nuw ptr, ptr %127, i32 1
  store ptr %128, ptr %7, align 8
  br label %48, !llvm.loop !29

129:                                              ; preds = %76, %48
  %130 = load ptr, ptr %3, align 8
  %131 = getelementptr inbounds nuw %struct.printTableContent, ptr %130, i32 0, i32 0
  %132 = load ptr, ptr %131, align 8
  %133 = getelementptr inbounds nuw %struct.printTableOpt, ptr %132, i32 0, i32 9
  %134 = load i8, ptr %133, align 2, !range !4, !noundef !5
  %135 = trunc i8 %134 to i1
  br i1 %135, label %136, label %209

136:                                              ; preds = %129
  %137 = load i8, ptr %5, align 1, !range !4, !noundef !5
  %138 = trunc i8 %137 to i1
  br i1 %138, label %183, label %139

139:                                              ; preds = %136
  %140 = load ptr, ptr %3, align 8
  %141 = getelementptr inbounds nuw %struct.printTableContent, ptr %140, i32 0, i32 10
  %142 = load ptr, ptr %141, align 8
  %143 = icmp ne ptr %142, null
  br i1 %143, label %144, label %183

144:                                              ; preds = %139
  %145 = load volatile i32, ptr @cancel_pressed, align 4
  %146 = icmp ne i32 %145, 0
  br i1 %146, label %183, label %147

147:                                              ; preds = %144
  call void @llvm.lifetime.start.p0(i64 8, ptr %10) #8
  %148 = load ptr, ptr %3, align 8
  %149 = getelementptr inbounds nuw %struct.printTableContent, ptr %148, i32 0, i32 0
  %150 = load ptr, ptr %149, align 8
  %151 = getelementptr inbounds nuw %struct.printTableOpt, ptr %150, i32 0, i32 14
  %152 = load ptr, ptr %4, align 8
  %153 = getelementptr inbounds nuw { ptr, i8 }, ptr %151, i32 0, i32 0
  %154 = load ptr, ptr %153, align 8
  %155 = getelementptr inbounds nuw { ptr, i8 }, ptr %151, i32 0, i32 1
  %156 = load i8, ptr %155, align 8
  call void @print_separator(ptr %154, i8 %156, ptr noundef %152)
  %157 = load ptr, ptr %3, align 8
  %158 = getelementptr inbounds nuw %struct.printTableContent, ptr %157, i32 0, i32 10
  %159 = load ptr, ptr %158, align 8
  store ptr %159, ptr %10, align 8
  br label %160

160:                                              ; preds = %178, %147
  %161 = load ptr, ptr %10, align 8
  %162 = icmp ne ptr %161, null
  br i1 %162, label %163, label %182

163:                                              ; preds = %160
  %164 = load ptr, ptr %3, align 8
  %165 = getelementptr inbounds nuw %struct.printTableContent, ptr %164, i32 0, i32 0
  %166 = load ptr, ptr %165, align 8
  %167 = getelementptr inbounds nuw %struct.printTableOpt, ptr %166, i32 0, i32 14
  %168 = load ptr, ptr %4, align 8
  %169 = getelementptr inbounds nuw { ptr, i8 }, ptr %167, i32 0, i32 0
  %170 = load ptr, ptr %169, align 8
  %171 = getelementptr inbounds nuw { ptr, i8 }, ptr %167, i32 0, i32 1
  %172 = load i8, ptr %171, align 8
  call void @print_separator(ptr %170, i8 %172, ptr noundef %168)
  %173 = load ptr, ptr %10, align 8
  %174 = getelementptr inbounds nuw %struct.printTableFooter, ptr %173, i32 0, i32 0
  %175 = load ptr, ptr %174, align 8
  %176 = load ptr, ptr %4, align 8
  %177 = call i32 @fputs(ptr noundef %175, ptr noundef %176)
  br label %178

178:                                              ; preds = %163
  %179 = load ptr, ptr %10, align 8
  %180 = getelementptr inbounds nuw %struct.printTableFooter, ptr %179, i32 0, i32 1
  %181 = load ptr, ptr %180, align 8
  store ptr %181, ptr %10, align 8
  br label %160, !llvm.loop !30

182:                                              ; preds = %160
  call void @llvm.lifetime.end.p0(i64 8, ptr %10) #8
  br label %183

183:                                              ; preds = %182, %144, %139, %136
  %184 = load i8, ptr %8, align 1, !range !4, !noundef !5
  %185 = trunc i8 %184 to i1
  br i1 %185, label %186, label %208

186:                                              ; preds = %183
  %187 = load ptr, ptr %3, align 8
  %188 = getelementptr inbounds nuw %struct.printTableContent, ptr %187, i32 0, i32 0
  %189 = load ptr, ptr %188, align 8
  %190 = getelementptr inbounds nuw %struct.printTableOpt, ptr %189, i32 0, i32 14
  %191 = getelementptr inbounds nuw %struct.separator, ptr %190, i32 0, i32 1
  %192 = load i8, ptr %191, align 8, !range !4, !noundef !5
  %193 = trunc i8 %192 to i1
  br i1 %193, label %194, label %204

194:                                              ; preds = %186
  %195 = load ptr, ptr %3, align 8
  %196 = getelementptr inbounds nuw %struct.printTableContent, ptr %195, i32 0, i32 0
  %197 = load ptr, ptr %196, align 8
  %198 = getelementptr inbounds nuw %struct.printTableOpt, ptr %197, i32 0, i32 14
  %199 = load ptr, ptr %4, align 8
  %200 = getelementptr inbounds nuw { ptr, i8 }, ptr %198, i32 0, i32 0
  %201 = load ptr, ptr %200, align 8
  %202 = getelementptr inbounds nuw { ptr, i8 }, ptr %198, i32 0, i32 1
  %203 = load i8, ptr %202, align 8
  call void @print_separator(ptr %201, i8 %203, ptr noundef %199)
  br label %207

204:                                              ; preds = %186
  %205 = load ptr, ptr %4, align 8
  %206 = call i32 @fputc(i32 noundef 10, ptr noundef %205)
  br label %207

207:                                              ; preds = %204, %194
  br label %208

208:                                              ; preds = %207, %183
  br label %209

209:                                              ; preds = %208, %129
  store i32 0, ptr %9, align 4
  br label %210

210:                                              ; preds = %209, %20
  call void @llvm.lifetime.end.p0(i64 1, ptr %8) #8
  call void @llvm.lifetime.end.p0(i64 8, ptr %7) #8
  call void @llvm.lifetime.end.p0(i64 4, ptr %6) #8
  call void @llvm.lifetime.end.p0(i64 1, ptr %5) #8
  %211 = load i32, ptr %9, align 4
  switch i32 %211, label %213 [
    i32 0, label %212
    i32 1, label %212
  ]

212:                                              ; preds = %210, %210
  ret void

213:                                              ; preds = %210
  unreachable
}