; Function Attrs: nofree nounwind uwtable
define internal fastcc void @print_unaligned_vertical(ptr noundef readonly captures(none) %0, ptr noundef captures(none) %1) unnamed_addr #0 {
  %3 = load ptr, ptr %0, align 8
  %4 = getelementptr inbounds nuw i8, ptr %3, i64 24
  %5 = load i8, ptr %4, align 8, !range !6, !noundef !7
  %6 = trunc nuw i8 %5 to i1
  %7 = load volatile i32, ptr @cancel_pressed, align 4
  %.not = icmp eq i32 %7, 0
  br i1 %.not, label %8, label %128

8:                                                ; preds = %2
  %9 = getelementptr inbounds nuw i8, ptr %3, i64 25
  %10 = load i8, ptr %9, align 1, !range !6, !noundef !7
  %11 = trunc nuw i8 %10 to i1
  %.not54 = xor i1 %11, true
  %brmerge = select i1 %.not54, i1 true, i1 %6
  %.mux = zext i1 %.not54 to i8
  br i1 %brmerge, label %17, label %12

12:                                               ; preds = %8
  %13 = getelementptr inbounds nuw i8, ptr %0, i64 8
  %14 = load ptr, ptr %13, align 8
  %.not47 = icmp eq ptr %14, null
  br i1 %.not47, label %17, label %15

15:                                               ; preds = %12
  %16 = tail call i32 @fputs(ptr noundef nonnull %14, ptr noundef %1)
  br label %17

17:                                               ; preds = %8, %12, %15
  %.043 = phi i8 [ 1, %15 ], [ 0, %12 ], [ %.mux, %8 ]
  %18 = getelementptr inbounds nuw i8, ptr %0, i64 40
  %19 = load ptr, ptr %18, align 8
  %20 = load ptr, ptr %19, align 8
  %.not4867 = icmp eq ptr %20, null
  br i1 %.not4867, label %print_separator.exit56._crit_edge, label %.lr.ph

.lr.ph:                                           ; preds = %17
  %21 = getelementptr inbounds nuw i8, ptr %0, i64 24
  %22 = getelementptr inbounds nuw i8, ptr %0, i64 16
  br label %23

23:                                               ; preds = %.lr.ph, %print_separator.exit60
  %.170 = phi i8 [ %.043, %.lr.ph ], [ %.4, %print_separator.exit60 ]
  %.04469 = phi ptr [ %19, %.lr.ph ], [ %85, %print_separator.exit60 ]
  %.04568 = phi i32 [ 0, %.lr.ph ], [ %70, %print_separator.exit60 ]
  %24 = trunc nuw i8 %.170 to i1
  br i1 %24, label %25, label %49

25:                                               ; preds = %23
  %26 = load ptr, ptr %0, align 8
  %27 = getelementptr inbounds nuw i8, ptr %26, i64 64
  %28 = load ptr, ptr %27, align 8
  %29 = getelementptr inbounds nuw i8, ptr %26, i64 72
  %30 = load i8, ptr %29, align 8
  %31 = trunc i8 %30 to i1
  br i1 %31, label %32, label %34

32:                                               ; preds = %25
  %33 = tail call i32 @fputc(i32 noundef 0, ptr noundef %1)
  br label %print_separator.exit

34:                                               ; preds = %25
  %.not.i = icmp eq ptr %28, null
  br i1 %.not.i, label %print_separator.exit, label %35

35:                                               ; preds = %34
  %36 = tail call i32 @fputs(ptr noundef nonnull readonly %28, ptr noundef %1)
  br label %print_separator.exit

print_separator.exit:                             ; preds = %32, %34, %35
  %37 = load ptr, ptr %0, align 8
  %38 = getelementptr inbounds nuw i8, ptr %37, i64 64
  %39 = load ptr, ptr %38, align 8
  %40 = getelementptr inbounds nuw i8, ptr %37, i64 72
  %41 = load i8, ptr %40, align 8
  %42 = trunc i8 %41 to i1
  br i1 %42, label %43, label %45

43:                                               ; preds = %print_separator.exit
  %44 = tail call i32 @fputc(i32 noundef 0, ptr noundef %1)
  br label %print_separator.exit56

45:                                               ; preds = %print_separator.exit
  %.not.i55 = icmp eq ptr %39, null
  br i1 %.not.i55, label %print_separator.exit56, label %46

46:                                               ; preds = %45
  %47 = tail call i32 @fputs(ptr noundef nonnull readonly %39, ptr noundef %1)
  br label %print_separator.exit56

print_separator.exit56:                           ; preds = %43, %45, %46
  %48 = load volatile i32, ptr @cancel_pressed, align 4
  %.not49 = icmp eq i32 %48, 0
  br i1 %.not49, label %49, label %print_separator.exit56._crit_edge

49:                                               ; preds = %print_separator.exit56, %23
  %50 = load ptr, ptr %21, align 8
  %51 = load i32, ptr %22, align 8
  %52 = urem i32 %.04568, %51
  %53 = zext i32 %52 to i64
  %54 = getelementptr inbounds nuw ptr, ptr %50, i64 %53
  %55 = load ptr, ptr %54, align 8
  %56 = tail call i32 @fputs(ptr noundef %55, ptr noundef %1)
  %57 = load ptr, ptr %0, align 8
  %58 = getelementptr inbounds nuw i8, ptr %57, i64 48
  %59 = load ptr, ptr %58, align 8
  %60 = getelementptr inbounds nuw i8, ptr %57, i64 56
  %61 = load i8, ptr %60, align 8
  %62 = trunc i8 %61 to i1
  br i1 %62, label %63, label %65

63:                                               ; preds = %49
  %64 = tail call i32 @fputc(i32 noundef 0, ptr noundef %1)
  br label %print_separator.exit58

65:                                               ; preds = %49
  %.not.i57 = icmp eq ptr %59, null
  br i1 %.not.i57, label %print_separator.exit58, label %66

66:                                               ; preds = %65
  %67 = tail call i32 @fputs(ptr noundef nonnull readonly %59, ptr noundef %1)
  br label %print_separator.exit58

print_separator.exit58:                           ; preds = %63, %65, %66
  %68 = load ptr, ptr %.04469, align 8
  %69 = tail call i32 @fputs(ptr noundef %68, ptr noundef %1)
  %70 = add i32 %.04568, 1
  %71 = load i32, ptr %22, align 8
  %72 = urem i32 %70, %71
  %.not50 = icmp eq i32 %72, 0
  br i1 %.not50, label %print_separator.exit60, label %73

73:                                               ; preds = %print_separator.exit58
  %74 = load ptr, ptr %0, align 8
  %75 = getelementptr inbounds nuw i8, ptr %74, i64 64
  %76 = load ptr, ptr %75, align 8
  %77 = getelementptr inbounds nuw i8, ptr %74, i64 72
  %78 = load i8, ptr %77, align 8
  %79 = trunc i8 %78 to i1
  br i1 %79, label %80, label %82

80:                                               ; preds = %73
  %81 = tail call i32 @fputc(i32 noundef 0, ptr noundef %1)
  br label %print_separator.exit60

82:                                               ; preds = %73
  %.not.i59 = icmp eq ptr %76, null
  br i1 %.not.i59, label %print_separator.exit60, label %83

83:                                               ; preds = %82
  %84 = tail call i32 @fputs(ptr noundef nonnull readonly %76, ptr noundef %1)
  br label %print_separator.exit60

print_separator.exit60:                           ; preds = %83, %82, %80, %print_separator.exit58
  %.4 = phi i8 [ 1, %print_separator.exit58 ], [ 0, %80 ], [ 0, %82 ], [ 0, %83 ]
  %85 = getelementptr inbounds nuw i8, ptr %.04469, i64 8
  %86 = load ptr, ptr %85, align 8
  %.not48 = icmp eq ptr %86, null
  br i1 %.not48, label %print_separator.exit56._crit_edge, label %23, !llvm.loop !28

print_separator.exit56._crit_edge:                ; preds = %print_separator.exit60, %print_separator.exit56, %17
  %.2 = phi i8 [ %.043, %17 ], [ 0, %print_separator.exit56 ], [ %.4, %print_separator.exit60 ]
  %87 = load ptr, ptr %0, align 8
  %88 = getelementptr inbounds nuw i8, ptr %87, i64 26
  %89 = load i8, ptr %88, align 2, !range !6, !noundef !7
  %90 = trunc nuw i8 %89 to i1
  br i1 %90, label %91, label %128

91:                                               ; preds = %print_separator.exit56._crit_edge
  br i1 %6, label %.loopexit, label %92

92:                                               ; preds = %91
  %93 = getelementptr inbounds nuw i8, ptr %0, i64 72
  %94 = load ptr, ptr %93, align 8
  %.not51 = icmp eq ptr %94, null
  br i1 %.not51, label %.loopexit, label %95

95:                                               ; preds = %92
  %96 = load volatile i32, ptr @cancel_pressed, align 4
  %.not52 = icmp eq i32 %96, 0
  br i1 %.not52, label %97, label %.loopexit

97:                                               ; preds = %95
  %98 = getelementptr inbounds nuw i8, ptr %87, i64 64
  %99 = load ptr, ptr %98, align 8
  %100 = getelementptr inbounds nuw i8, ptr %87, i64 72
  %101 = load i8, ptr %100, align 8
  %102 = trunc i8 %101 to i1
  br i1 %102, label %103, label %105

103:                                              ; preds = %97
  %104 = tail call i32 @fputc(i32 noundef 0, ptr noundef %1)
  br label %print_separator.exit62

105:                                              ; preds = %97
  %.not.i61 = icmp eq ptr %99, null
  br i1 %.not.i61, label %print_separator.exit62, label %106

106:                                              ; preds = %105
  %107 = tail call i32 @fputs(ptr noundef nonnull readonly %99, ptr noundef %1)
  br label %print_separator.exit62

print_separator.exit62:                           ; preds = %103, %105, %106
  %.072 = load ptr, ptr %93, align 8
  %.not5373 = icmp eq ptr %.072, null
  br i1 %.not5373, label %.loopexit, label %.lr.ph75

.lr.ph75:                                         ; preds = %print_separator.exit62, %print_separator.exit64
  %.074 = phi ptr [ %.0, %print_separator.exit64 ], [ %.072, %print_separator.exit62 ]
  %108 = load ptr, ptr %0, align 8
  %109 = getelementptr inbounds nuw i8, ptr %108, i64 64
  %110 = load ptr, ptr %109, align 8
  %111 = getelementptr inbounds nuw i8, ptr %108, i64 72
  %112 = load i8, ptr %111, align 8
  %113 = trunc i8 %112 to i1
  br i1 %113, label %114, label %116

114:                                              ; preds = %.lr.ph75
  %115 = tail call i32 @fputc(i32 noundef 0, ptr noundef %1)
  br label %print_separator.exit64

116:                                              ; preds = %.lr.ph75
  %.not.i63 = icmp eq ptr %110, null
  br i1 %.not.i63, label %print_separator.exit64, label %117

117:                                              ; preds = %116
  %118 = tail call i32 @fputs(ptr noundef nonnull readonly %110, ptr noundef %1)
  br label %print_separator.exit64

print_separator.exit64:                           ; preds = %114, %116, %117
  %119 = load ptr, ptr %.074, align 8
  %120 = tail call i32 @fputs(ptr noundef %119, ptr noundef %1)
  %121 = getelementptr inbounds nuw i8, ptr %.074, i64 8
  %.0 = load ptr, ptr %121, align 8
  %.not53 = icmp eq ptr %.0, null
  br i1 %.not53, label %.loopexit, label %.lr.ph75, !llvm.loop !29

.loopexit:                                        ; preds = %print_separator.exit64, %print_separator.exit62, %95, %92, %91
  %122 = trunc nuw i8 %.2 to i1
  br i1 %122, label %.sink.split, label %128

.sink.split:                                      ; preds = %.loopexit
  %123 = load ptr, ptr %0, align 8
  %124 = getelementptr inbounds nuw i8, ptr %123, i64 72
  %125 = load i8, ptr %124, align 8, !range !6, !noundef !7
  %126 = trunc nuw i8 %125 to i1
  %. = select i1 %126, i32 0, i32 10
  %127 = tail call i32 @fputc(i32 noundef %., ptr noundef %1)
  br label %128

128:                                              ; preds = %.sink.split, %print_separator.exit56._crit_edge, %.loopexit, %2
  ret void
}